; Function Attrs: mustprogress nounwind uwtable
define dso_local noundef ptr @_ZN4node6crypto7TLSWrap18CreateShutdownWrapEN2v85LocalINS2_6ObjectEEE(ptr nocapture noundef nonnull readonly align 8 dereferenceable(457) %this, ptr %req_wrap_object.coerce) unnamed_addr #3 align 2 {
entry:
  %stream_.i.i = getelementptr inbounds i8, ptr %this, i64 128
  %0 = load ptr, ptr %stream_.i.i, align 8
  %vtable = load ptr, ptr %0, align 8
  %vfn = getelementptr inbounds i8, ptr %vtable, i64 112
  %1 = load ptr, ptr %vfn, align 8
  %call7 = tail call noundef ptr %1(ptr noundef nonnull align 8 dereferenceable(64) %0, ptr %req_wrap_object.coerce) #23
  ret ptr %call7
}